; ModuleID = '32/354.c'
source_filename = "32/354.c"
target datalayout = "e-m:e-p270:32:32-p271:32:32-p272:64:64-i64:64-f80:128-n8:16:32:64-S128"
target triple = "x86_64-pc-linux-gnu"

@.str = private unnamed_addr constant [4 x i8] c"%d\0A\00", align 1
@.str.1 = private unnamed_addr constant [3 x i8] c"%s\00", align 1
@.str.2 = private unnamed_addr constant [2 x i8] c"\0A\00", align 1
@.str.3 = private unnamed_addr constant [3 x i8] c"%d\00", align 1

; Function Attrs: noinline nounwind uwtable
define dso_local i32 @main() #0 {
  %1 = alloca i32, align 4
  %2 = alloca i32, align 4
  %3 = alloca [100 x i32], align 16
  %4 = alloca [100 x i32], align 16
  %5 = alloca [100 x i32], align 16
  %6 = alloca i32, align 4
  %7 = alloca i32, align 4
  %8 = alloca i32, align 4
  %9 = alloca i32, align 4
  %10 = alloca [101 x i8], align 16
  %11 = alloca [101 x i8], align 16
  store i32 0, i32* %1, align 4
  %12 = bitcast [100 x i32]* %3 to i8*
  call void @llvm.memset.p0i8.i64(i8* align 16 %12, i8 0, i64 400, i1 false)
  %13 = bitcast [100 x i32]* %4 to i8*
  call void @llvm.memset.p0i8.i64(i8* align 16 %13, i8 0, i64 400, i1 false)
  %14 = bitcast [100 x i32]* %5 to i8*
  call void @llvm.memset.p0i8.i64(i8* align 16 %14, i8 0, i64 400, i1 false)
  %15 = bitcast [101 x i8]* %10 to i8*
  call void @llvm.memset.p0i8.i64(i8* align 16 %15, i8 0, i64 101, i1 false)
  %16 = bitcast [101 x i8]* %11 to i8*
  call void @llvm.memset.p0i8.i64(i8* align 16 %16, i8 0, i64 101, i1 false)
  %17 = call i32 (i8*, ...) @__isoc99_scanf(i8* getelementptr inbounds ([4 x i8], [4 x i8]* @.str, i64 0, i64 0), i32* %2)
  store i32 0, i32* %8, align 4
  br label %18

18:                                               ; preds = %203, %0
  %19 = load i32, i32* %8, align 4
  %20 = load i32, i32* %2, align 4
  %21 = icmp slt i32 %19, %20
  br i1 %21, label %22, label %206

22:                                               ; preds = %18
  %23 = getelementptr inbounds [101 x i8], [101 x i8]* %10, i64 0, i64 0
  %24 = call i32 (i8*, ...) @__isoc99_scanf(i8* getelementptr inbounds ([3 x i8], [3 x i8]* @.str.1, i64 0, i64 0), i8* %23)
  %25 = getelementptr inbounds [101 x i8], [101 x i8]* %11, i64 0, i64 0
  %26 = call i32 (i8*, ...) @__isoc99_scanf(i8* getelementptr inbounds ([3 x i8], [3 x i8]* @.str.1, i64 0, i64 0), i8* %25)
  %27 = load i32, i32* %8, align 4
  %28 = load i32, i32* %2, align 4
  %29 = sub nsw i32 %28, 1
  %30 = icmp ne i32 %27, %29
  br i1 %30, label %31, label %33

31:                                               ; preds = %22
  %32 = call i32 (i8*, ...) @__isoc99_scanf(i8* getelementptr inbounds ([2 x i8], [2 x i8]* @.str.2, i64 0, i64 0))
  br label %33

33:                                               ; preds = %31, %22
  %34 = getelementptr inbounds [101 x i8], [101 x i8]* %10, i64 0, i64 0
  %35 = call i64 @strlen(i8* %34) #4
  %36 = trunc i64 %35 to i32
  store i32 %36, i32* %6, align 4
  %37 = getelementptr inbounds [101 x i8], [101 x i8]* %11, i64 0, i64 0
  %38 = call i64 @strlen(i8* %37) #4
  %39 = trunc i64 %38 to i32
  store i32 %39, i32* %7, align 4
  store i32 0, i32* %9, align 4
  br label %40

40:                                               ; preds = %107, %33
  %41 = load i32, i32* %9, align 4
  %42 = load i32, i32* %6, align 4
  %43 = load i32, i32* %7, align 4
  %44 = call i32 @compare(i32 %42, i32 %43)
  %45 = icmp slt i32 %41, %44
  br i1 %45, label %46, label %110

46:                                               ; preds = %40
  %47 = load i32, i32* %6, align 4
  %48 = load i32, i32* %7, align 4
  %49 = icmp sge i32 %47, %48
  br i1 %49, label %50, label %78

50:                                               ; preds = %46
  %51 = load i32, i32* %9, align 4
  %52 = sext i32 %51 to i64
  %53 = getelementptr inbounds [101 x i8], [101 x i8]* %10, i64 0, i64 %52
  %54 = load i8, i8* %53, align 1
  %55 = sext i8 %54 to i32
  %56 = sub nsw i32 %55, 48
  %57 = load i32, i32* %9, align 4
  %58 = sext i32 %57 to i64
  %59 = getelementptr inbounds [100 x i32], [100 x i32]* %3, i64 0, i64 %58
  store i32 %56, i32* %59, align 4
  %60 = load i32, i32* %9, align 4
  %61 = load i32, i32* %7, align 4
  %62 = icmp slt i32 %60, %61
  br i1 %62, label %63, label %77

63:                                               ; preds = %50
  %64 = load i32, i32* %9, align 4
  %65 = sext i32 %64 to i64
  %66 = getelementptr inbounds [101 x i8], [101 x i8]* %11, i64 0, i64 %65
  %67 = load i8, i8* %66, align 1
  %68 = sext i8 %67 to i32
  %69 = sub nsw i32 %68, 48
  %70 = load i32, i32* %9, align 4
  %71 = load i32, i32* %6, align 4
  %72 = add nsw i32 %70, %71
  %73 = load i32, i32* %7, align 4
  %74 = sub nsw i32 %72, %73
  %75 = sext i32 %74 to i64
  %76 = getelementptr inbounds [100 x i32], [100 x i32]* %4, i64 0, i64 %75
  store i32 %69, i32* %76, align 4
  br label %77

77:                                               ; preds = %63, %50
  br label %106

78:                                               ; preds = %46
  %79 = load i32, i32* %9, align 4
  %80 = load i32, i32* %6, align 4
  %81 = icmp slt i32 %79, %80
  br i1 %81, label %82, label %96

82:                                               ; preds = %78
  %83 = load i32, i32* %9, align 4
  %84 = sext i32 %83 to i64
  %85 = getelementptr inbounds [101 x i8], [101 x i8]* %10, i64 0, i64 %84
  %86 = load i8, i8* %85, align 1
  %87 = sext i8 %86 to i32
  %88 = sub nsw i32 %87, 48
  %89 = load i32, i32* %9, align 4
  %90 = load i32, i32* %7, align 4
  %91 = add nsw i32 %89, %90
  %92 = load i32, i32* %6, align 4
  %93 = sub nsw i32 %91, %92
  %94 = sext i32 %93 to i64
  %95 = getelementptr inbounds [100 x i32], [100 x i32]* %3, i64 0, i64 %94
  store i32 %88, i32* %95, align 4
  br label %96

96:                                               ; preds = %82, %78
  %97 = load i32, i32* %9, align 4
  %98 = sext i32 %97 to i64
  %99 = getelementptr inbounds [101 x i8], [101 x i8]* %11, i64 0, i64 %98
  %100 = load i8, i8* %99, align 1
  %101 = sext i8 %100 to i32
  %102 = sub nsw i32 %101, 48
  %103 = load i32, i32* %9, align 4
  %104 = sext i32 %103 to i64
  %105 = getelementptr inbounds [100 x i32], [100 x i32]* %4, i64 0, i64 %104
  store i32 %102, i32* %105, align 4
  br label %106

106:                                              ; preds = %96, %77
  br label %107

107:                                              ; preds = %106
  %108 = load i32, i32* %9, align 4
  %109 = add nsw i32 %108, 1
  store i32 %109, i32* %9, align 4
  br label %40

110:                                              ; preds = %40
  %111 = load i32, i32* %6, align 4
  %112 = load i32, i32* %7, align 4
  %113 = call i32 @compare(i32 %111, i32 %112)
  %114 = sub nsw i32 %113, 1
  store i32 %114, i32* %9, align 4
  br label %115

115:                                              ; preds = %167, %110
  %116 = load i32, i32* %9, align 4
  %117 = icmp sge i32 %116, 0
  br i1 %117, label %118, label %170

118:                                              ; preds = %115
  %119 = load i32, i32* %9, align 4
  %120 = sext i32 %119 to i64
  %121 = getelementptr inbounds [100 x i32], [100 x i32]* %3, i64 0, i64 %120
  %122 = load i32, i32* %121, align 4
  %123 = load i32, i32* %9, align 4
  %124 = sext i32 %123 to i64
  %125 = getelementptr inbounds [100 x i32], [100 x i32]* %4, i64 0, i64 %124
  %126 = load i32, i32* %125, align 4
  %127 = sub nsw i32 %122, %126
  %128 = icmp sge i32 %127, 0
  br i1 %128, label %129, label %142

129:                                              ; preds = %118
  %130 = load i32, i32* %9, align 4
  %131 = sext i32 %130 to i64
  %132 = getelementptr inbounds [100 x i32], [100 x i32]* %3, i64 0, i64 %131
  %133 = load i32, i32* %132, align 4
  %134 = load i32, i32* %9, align 4
  %135 = sext i32 %134 to i64
  %136 = getelementptr inbounds [100 x i32], [100 x i32]* %4, i64 0, i64 %135
  %137 = load i32, i32* %136, align 4
  %138 = sub nsw i32 %133, %137
  %139 = load i32, i32* %9, align 4
  %140 = sext i32 %139 to i64
  %141 = getelementptr inbounds [100 x i32], [100 x i32]* %5, i64 0, i64 %140
  store i32 %138, i32* %141, align 4
  br label %166

142:                                              ; preds = %118
  %143 = load i32, i32* %9, align 4
  %144 = sext i32 %143 to i64
  %145 = getelementptr inbounds [100 x i32], [100 x i32]* %3, i64 0, i64 %144
  %146 = load i32, i32* %145, align 4
  %147 = add nsw i32 10, %146
  %148 = load i32, i32* %9, align 4
  %149 = sext i32 %148 to i64
  %150 = getelementptr inbounds [100 x i32], [100 x i32]* %4, i64 0, i64 %149
  %151 = load i32, i32* %150, align 4
  %152 = sub nsw i32 %147, %151
  %153 = load i32, i32* %9, align 4
  %154 = sext i32 %153 to i64
  %155 = getelementptr inbounds [100 x i32], [100 x i32]* %5, i64 0, i64 %154
  store i32 %152, i32* %155, align 4
  %156 = load i32, i32* %9, align 4
  %157 = sub nsw i32 %156, 1
  %158 = sext i32 %157 to i64
  %159 = getelementptr inbounds [100 x i32], [100 x i32]* %3, i64 0, i64 %158
  %160 = load i32, i32* %159, align 4
  %161 = sub nsw i32 %160, 1
  %162 = load i32, i32* %9, align 4
  %163 = sub nsw i32 %162, 1
  %164 = sext i32 %163 to i64
  %165 = getelementptr inbounds [100 x i32], [100 x i32]* %3, i64 0, i64 %164
  store i32 %161, i32* %165, align 4
  br label %166

166:                                              ; preds = %142, %129
  br label %167

167:                                              ; preds = %166
  %168 = load i32, i32* %9, align 4
  %169 = add nsw i32 %168, -1
  store i32 %169, i32* %9, align 4
  br label %115

170:                                              ; preds = %115
  store i32 0, i32* %9, align 4
  br label %171

171:                                              ; preds = %198, %170
  %172 = load i32, i32* %9, align 4
  %173 = load i32, i32* %6, align 4
  %174 = load i32, i32* %7, align 4
  %175 = call i32 @compare(i32 %173, i32 %174)
  %176 = icmp slt i32 %172, %175
  br i1 %176, label %177, label %201

177:                                              ; preds = %171
  %178 = load i32, i32* %9, align 4
  %179 = sext i32 %178 to i64
  %180 = getelementptr inbounds [100 x i32], [100 x i32]* %5, i64 0, i64 %179
  %181 = load i32, i32* %180, align 4
  %182 = call i32 (i8*, ...) @printf(i8* getelementptr inbounds ([3 x i8], [3 x i8]* @.str.3, i64 0, i64 0), i32 %181)
  %183 = load i32, i32* %9, align 4
  %184 = sext i32 %183 to i64
  %185 = getelementptr inbounds [100 x i32], [100 x i32]* %5, i64 0, i64 %184
  store i32 0, i32* %185, align 4
  %186 = load i32, i32* %9, align 4
  %187 = sext i32 %186 to i64
  %188 = getelementptr inbounds [101 x i8], [101 x i8]* %10, i64 0, i64 %187
  store i8 0, i8* %188, align 1
  %189 = load i32, i32* %9, align 4
  %190 = sext i32 %189 to i64
  %191 = getelementptr inbounds [101 x i8], [101 x i8]* %11, i64 0, i64 %190
  store i8 0, i8* %191, align 1
  %192 = load i32, i32* %9, align 4
  %193 = sext i32 %192 to i64
  %194 = getelementptr inbounds [100 x i32], [100 x i32]* %3, i64 0, i64 %193
  store i32 0, i32* %194, align 4
  %195 = load i32, i32* %9, align 4
  %196 = sext i32 %195 to i64
  %197 = getelementptr inbounds [100 x i32], [100 x i32]* %4, i64 0, i64 %196
  store i32 0, i32* %197, align 4
  br label %198

198:                                              ; preds = %177
  %199 = load i32, i32* %9, align 4
  %200 = add nsw i32 %199, 1
  store i32 %200, i32* %9, align 4
  br label %171

201:                                              ; preds = %171
  %202 = call i32 (i8*, ...) @printf(i8* getelementptr inbounds ([2 x i8], [2 x i8]* @.str.2, i64 0, i64 0))
  br label %203

203:                                              ; preds = %201
  %204 = load i32, i32* %8, align 4
  %205 = add nsw i32 %204, 1
  store i32 %205, i32* %8, align 4
  br label %18

206:                                              ; preds = %18
  ret i32 0
}

; Function Attrs: argmemonly nounwind willreturn
declare void @llvm.memset.p0i8.i64(i8* nocapture writeonly, i8, i64, i1 immarg) #1

declare dso_local i32 @__isoc99_scanf(i8*, ...) #2

; Function Attrs: nounwind readonly
declare dso_local i64 @strlen(i8*) #3

; Function Attrs: noinline nounwind uwtable
define dso_local i32 @compare(i32 %0, i32 %1) #0 {
  %3 = alloca i32, align 4
  %4 = alloca i32, align 4
  %5 = alloca i32, align 4
  store i32 %0, i32* %4, align 4
  store i32 %1, i32* %5, align 4
  %6 = load i32, i32* %4, align 4
  %7 = load i32, i32* %5, align 4
  %8 = icmp sge i32 %6, %7
  br i1 %8, label %9, label %11

9:                                                ; preds = %2
  %10 = load i32, i32* %4, align 4
  store i32 %10, i32* %3, align 4
  br label %13

11:                                               ; preds = %2
  %12 = load i32, i32* %5, align 4
  store i32 %12, i32* %3, align 4
  br label %13

13:                                               ; preds = %11, %9
  %14 = load i32, i32* %3, align 4
  ret i32 %14
}

declare dso_local i32 @printf(i8*, ...) #2


!llvm.module.flags = !{!0}
!llvm.ident = !{!1}

!0 = !{i32 1, !"wchar_size", i32 4}
!1 = !{!"clang version 10.0.0-4ubuntu1 "}
